target datalayout = "e-m:e-p270:32:32-p271:32:32-p272:64:64-i64:64-i128:128-f80:128-n8:16:32:64-S128"
target triple = "x86_64-unknown-linux-gnu"

%"class.(anonymous namespace)::elim_small_bv_tactic" = type { %class.tactic.base, ptr, %"struct.(anonymous namespace)::elim_small_bv_tactic::rw", %class.params_ref }
%class.tactic.base = type <{ %"class.user_propagator::core", i32 }>
%"class.user_propagator::core" = type { ptr }
%"struct.(anonymous namespace)::elim_small_bv_tactic::rw" = type { %class.rewriter_tpl, %"struct.(anonymous namespace)::elim_small_bv_tactic::rw_cfg" }
%class.rewriter_tpl = type { %class.rewriter_core, ptr, i32, %class.ptr_vector.1, %class.var_shifter, %class.inv_var_shifter, %class.obj_ref, %class.obj_ref.10, %class.obj_ref.10, %class.svector.11 }
%class.rewriter_core = type { ptr, ptr, i8, i8, %class.ptr_vector, ptr, %class.svector, %class.ref_vector, %class.ptr_vector, ptr, %class.ref_vector.3, %class.obj_hashtable, ptr, i32, %class.svector.8 }
%class.svector = type { %class.vector.0 }
%class.vector.0 = type { ptr }
%class.ref_vector = type { %class.ref_vector_core }
%class.ref_vector_core = type { %class.ref_manager_wrapper, %class.ptr_vector.1 }
%class.ref_manager_wrapper = type { ptr }
%class.ptr_vector = type { %class.vector }
%class.vector = type { ptr }
%class.ref_vector.3 = type { %class.ref_vector_core.4 }
%class.ref_vector_core.4 = type { %class.ref_manager_wrapper.5, %class.ptr_vector.6 }
%class.ref_manager_wrapper.5 = type { ptr }
%class.ptr_vector.6 = type { %class.vector.7 }
%class.vector.7 = type { ptr }
%class.obj_hashtable = type { %class.core_hashtable.base, [4 x i8] }
%class.core_hashtable.base = type <{ ptr, i32, i32, i32 }>
%class.svector.8 = type { %class.vector.9 }
%class.vector.9 = type { ptr }
%class.ptr_vector.1 = type { %class.vector.2 }
%class.vector.2 = type { ptr }
%class.var_shifter = type <{ %class.var_shifter_core, i32, i32, i32, [4 x i8] }>
%class.var_shifter_core = type { %class.rewriter_core }
%class.inv_var_shifter = type <{ %class.var_shifter_core, i32, [4 x i8] }>
%class.obj_ref = type { ptr, ptr }
%class.obj_ref.10 = type { ptr, ptr }
%class.svector.11 = type { %class.vector.12 }
%class.vector.12 = type { ptr }
%"struct.(anonymous namespace)::elim_small_bv_tactic::rw_cfg" = type { ptr, %class.params_ref, %class.bv_util, %class.th_rewriter, %class.ref, i32, i64, i64, i8, %class.ref_vector.13, i64 }
%class.bv_util = type { %class.bv_recognizers, ptr, ptr }
%class.bv_recognizers = type { i32 }
%class.th_rewriter = type { ptr, %class.params_ref }
%class.ref = type { ptr }
%class.ref_vector.13 = type { %class.ref_vector_core.14 }
%class.ref_vector_core.14 = type { %class.ref_manager_wrapper.15, %class.ptr_vector.16 }
%class.ref_manager_wrapper.15 = type { ptr }
%class.ptr_vector.16 = type { %class.vector.17 }
%class.vector.17 = type { ptr }
%class.params_ref = type { ptr }

@.str.3 = private unnamed_addr constant [11 x i8] c"max_memory\00", align 1
@.str.4 = private unnamed_addr constant [10 x i8] c"max_steps\00", align 1
@.str.5 = private unnamed_addr constant [9 x i8] c"max_bits\00", align 1

; Function Attrs: mustprogress nounwind uwtable
define linkonce_odr hidden noundef i64 @_Z18megabytes_to_bytesj(i32 noundef %mb) #5 comdat {
entry:
  %retval = alloca i64, align 8
  %mb.addr = alloca i32, align 4
  %b = alloca i64, align 8
  %r = alloca i64, align 8
  store i32 %mb, ptr %mb.addr, align 4
  %0 = load i32, ptr %mb.addr, align 4
  %cmp = icmp eq i32 %0, -1
  br i1 %cmp, label %if.then, label %if.end

if.then:                                          ; preds = %entry
  store i64 -1, ptr %retval, align 8
  br label %return

if.end:                                           ; preds = %entry
  %1 = load i32, ptr %mb.addr, align 4
  %conv = zext i32 %1 to i64
  %mul = mul i64 %conv, 1024
  %mul1 = mul i64 %mul, 1024
  store i64 %mul1, ptr %b, align 8
  %2 = load i64, ptr %b, align 8
  store i64 %2, ptr %r, align 8
  %3 = load i64, ptr %r, align 8
  %4 = load i64, ptr %b, align 8
  %cmp2 = icmp ne i64 %3, %4
  br i1 %cmp2, label %if.then3, label %if.end4

if.then3:                                         ; preds = %if.end
  store i64 -1, ptr %r, align 8
  br label %if.end4

if.end4:                                          ; preds = %if.then3, %if.end
  %5 = load i64, ptr %r, align 8
  store i64 %5, ptr %retval, align 8
  br label %return

return:                                           ; preds = %if.end4, %if.then
  %6 = load i64, ptr %retval, align 8
  ret i64 %6
}

; Function Attrs: mustprogress uwtable
define internal void @_ZN12_GLOBAL__N_120elim_small_bv_tactic6rw_cfg11updt_paramsERK10params_ref(ptr noundef nonnull align 8 dereferenceable(120) %this, ptr noundef nonnull align 8 dereferenceable(8) %p) #4 align 2 {
entry:
  %this.addr = alloca ptr, align 8
  %p.addr = alloca ptr, align 8
  store ptr %this, ptr %this.addr, align 8
  store ptr %p, ptr %p.addr, align 8
  %this1 = load ptr, ptr %this.addr, align 8
  %m_params = getelementptr inbounds %"struct.(anonymous namespace)::elim_small_bv_tactic::rw_cfg", ptr %this1, i32 0, i32 1
  %0 = load ptr, ptr %p.addr, align 8
  call void @_ZN10params_ref6appendERKS_(ptr noundef nonnull align 8 dereferenceable(8) %m_params, ptr noundef nonnull align 8 dereferenceable(8) %0)
  %m_params2 = getelementptr inbounds %"struct.(anonymous namespace)::elim_small_bv_tactic::rw_cfg", ptr %this1, i32 0, i32 1
  %call = call noundef i32 @_ZNK10params_ref8get_uintEPKcj(ptr noundef nonnull align 8 dereferenceable(8) %m_params2, ptr noundef @.str.3, i32 noundef -1)
  %call3 = call noundef i64 @_Z18megabytes_to_bytesj(i32 noundef %call)
  %m_max_memory = getelementptr inbounds %"struct.(anonymous namespace)::elim_small_bv_tactic::rw_cfg", ptr %this1, i32 0, i32 7
  store i64 %call3, ptr %m_max_memory, align 8
  %m_params4 = getelementptr inbounds %"struct.(anonymous namespace)::elim_small_bv_tactic::rw_cfg", ptr %this1, i32 0, i32 1
  %call5 = call noundef i32 @_ZNK10params_ref8get_uintEPKcj(ptr noundef nonnull align 8 dereferenceable(8) %m_params4, ptr noundef @.str.4, i32 noundef -1)
  %conv = zext i32 %call5 to i64
  %m_max_steps = getelementptr inbounds %"struct.(anonymous namespace)::elim_small_bv_tactic::rw_cfg", ptr %this1, i32 0, i32 6
  store i64 %conv, ptr %m_max_steps, align 8
  %m_params6 = getelementptr inbounds %"struct.(anonymous namespace)::elim_small_bv_tactic::rw_cfg", ptr %this1, i32 0, i32 1
  %call7 = call noundef i32 @_ZNK10params_ref8get_uintEPKcj(ptr noundef nonnull align 8 dereferenceable(8) %m_params6, ptr noundef @.str.5, i32 noundef 4)
  %m_max_bits = getelementptr inbounds %"struct.(anonymous namespace)::elim_small_bv_tactic::rw_cfg", ptr %this1, i32 0, i32 5
  store i32 %call7, ptr %m_max_bits, align 8
  ret void
}

; Function Attrs: mustprogress nounwind uwtable
define internal noundef nonnull align 8 dereferenceable(120) ptr @_ZN12rewriter_tplIN12_GLOBAL__N_120elim_small_bv_tactic6rw_cfgEE3cfgEv(ptr noundef nonnull align 8 dereferenceable(536) %this) #5 align 2 {
entry:
  %this.addr = alloca ptr, align 8
  store ptr %this, ptr %this.addr, align 8
  %this1 = load ptr, ptr %this.addr, align 8
  %m_cfg = getelementptr inbounds %class.rewriter_tpl, ptr %this1, i32 0, i32 1
  %0 = load ptr, ptr %m_cfg, align 8
  ret ptr %0
}

; Function Attrs: mustprogress uwtable
define linkonce_odr hidden void @_ZN10params_ref6appendERKS_(ptr noundef nonnull align 8 dereferenceable(8) %this, ptr noundef nonnull align 8 dereferenceable(8) %src) #4 comdat align 2 {
entry:
  %this.addr = alloca ptr, align 8
  %src.addr = alloca ptr, align 8
  store ptr %this, ptr %this.addr, align 8
  store ptr %src, ptr %src.addr, align 8
  %this1 = load ptr, ptr %this.addr, align 8
  %0 = load ptr, ptr %src.addr, align 8
  call void @_ZN10params_ref4copyERKS_(ptr noundef nonnull align 8 dereferenceable(8) %this1, ptr noundef nonnull align 8 dereferenceable(8) %0)
  ret void
}

; Function Attrs: mustprogress uwtable
define internal void @_ZN12_GLOBAL__N_120elim_small_bv_tactic11updt_paramsERK10params_ref(ptr noundef nonnull align 8 dereferenceable(688) %this, ptr noundef nonnull align 8 dereferenceable(8) %p) unnamed_addr #4 align 2 {
entry:
  %this.addr = alloca ptr, align 8
  %p.addr = alloca ptr, align 8
  store ptr %this, ptr %this.addr, align 8
  store ptr %p, ptr %p.addr, align 8
  %this1 = load ptr, ptr %this.addr, align 8
  %m_params = getelementptr inbounds %"class.(anonymous namespace)::elim_small_bv_tactic", ptr %this1, i32 0, i32 3
  %0 = load ptr, ptr %p.addr, align 8
  call void @_ZN10params_ref6appendERKS_(ptr noundef nonnull align 8 dereferenceable(8) %m_params, ptr noundef nonnull align 8 dereferenceable(8) %0)
  %m_rw = getelementptr inbounds %"class.(anonymous namespace)::elim_small_bv_tactic", ptr %this1, i32 0, i32 2
  %call = call noundef nonnull align 8 dereferenceable(120) ptr @_ZN12rewriter_tplIN12_GLOBAL__N_120elim_small_bv_tactic6rw_cfgEE3cfgEv(ptr noundef nonnull align 8 dereferenceable(536) %m_rw)
  %m_params2 = getelementptr inbounds %"class.(anonymous namespace)::elim_small_bv_tactic", ptr %this1, i32 0, i32 3
  call void @_ZN12_GLOBAL__N_120elim_small_bv_tactic6rw_cfg11updt_paramsERK10params_ref(ptr noundef nonnull align 8 dereferenceable(120) %call, ptr noundef nonnull align 8 dereferenceable(8) %m_params2)
  ret void
}