; Function Attrs: mustprogress uwtable
define internal void @_ZN12_GLOBAL__N_120elim_small_bv_tactic11updt_paramsERK10params_ref(ptr noundef nonnull align 8 dereferenceable(688) %this, ptr noundef nonnull align 8 dereferenceable(8) %p) unnamed_addr #3 align 2 {
entry:
  %m_params = getelementptr inbounds i8, ptr %this, i64 680
  tail call void @_ZN10params_ref4copyERKS_(ptr noundef nonnull align 8 dereferenceable(8) %m_params, ptr noundef nonnull align 8 dereferenceable(8) %p)
  %0 = getelementptr inbounds i8, ptr %this, i64 168
  %m_rw.val = load ptr, ptr %0, align 8
  %m_params.i = getelementptr inbounds i8, ptr %m_rw.val, i64 8
  tail call void @_ZN10params_ref4copyERKS_(ptr noundef nonnull align 8 dereferenceable(8) %m_params.i, ptr noundef nonnull align 8 dereferenceable(8) %m_params)
  %call.i = tail call noundef i32 @_ZNK10params_ref8get_uintEPKcj(ptr noundef nonnull align 8 dereferenceable(8) %m_params.i, ptr noundef nonnull @.str.3, i32 noundef -1)
  %cmp.i.i = icmp eq i32 %call.i, -1
  %conv.i.i = zext i32 %call.i to i64
  %mul1.i.i = shl nuw nsw i64 %conv.i.i, 20
  %retval.0.i.i = select i1 %cmp.i.i, i64 -1, i64 %mul1.i.i
  %m_max_memory.i = getelementptr inbounds i8, ptr %m_rw.val, i64 80
  store i64 %retval.0.i.i, ptr %m_max_memory.i, align 8
  %call5.i = tail call noundef i32 @_ZNK10params_ref8get_uintEPKcj(ptr noundef nonnull align 8 dereferenceable(8) %m_params.i, ptr noundef nonnull @.str.4, i32 noundef -1)
  %conv.i = zext i32 %call5.i to i64
  %m_max_steps.i = getelementptr inbounds i8, ptr %m_rw.val, i64 72
  store i64 %conv.i, ptr %m_max_steps.i, align 8
  %call7.i = tail call noundef i32 @_ZNK10params_ref8get_uintEPKcj(ptr noundef nonnull align 8 dereferenceable(8) %m_params.i, ptr noundef nonnull @.str.5, i32 noundef 4)
  %m_max_bits.i = getelementptr inbounds i8, ptr %m_rw.val, i64 64
  store i32 %call7.i, ptr %m_max_bits.i, align 8
  ret void
}